; Function Attrs: mustprogress uwtable
define noundef nonnull ptr @_ZNK2mu10ParserBase4EvalERi(ptr noundef nonnull align 8 dereferenceable(596) %0, ptr nocapture noundef nonnull writeonly align 4 dereferenceable(4) %1) local_unnamed_addr #7 align 2 {
  %3 = getelementptr inbounds i8, ptr %0, i64 40
  %4 = getelementptr inbounds i8, ptr %0, i64 48
  %5 = load ptr, ptr %4, align 8
  %6 = load ptr, ptr %3, align 8
  %.not = icmp eq ptr %5, %6
  br i1 %.not, label %9, label %7

7:                                                ; preds = %2
  %8 = tail call noundef double @_ZNK2mu10ParserBase16ParseCmdCodeBulkEii(ptr noundef nonnull align 8 dereferenceable(596) %0, i32 noundef 0, i32 noundef 0)
  br label %11

9:                                                ; preds = %2
  %10 = tail call noundef double @_ZNK2mu10ParserBase11ParseStringEv(ptr noundef nonnull align 8 dereferenceable(596) %0)
  br label %11

11:                                               ; preds = %9, %7
  %12 = getelementptr inbounds i8, ptr %0, i64 592
  %13 = load i32, ptr %12, align 8
  store i32 %13, ptr %1, align 4
  %14 = getelementptr inbounds i8, ptr %0, i64 568
  %15 = load ptr, ptr %14, align 8
  %16 = getelementptr inbounds i8, ptr %15, i64 8
  ret ptr %16
}